; Function Attrs: mustprogress uwtable
define hidden void @_ZNK6spacer18inductive_property9to_stringB5cxx11Ev(ptr noalias sret(%"class.std::__cxx11::basic_string") align 8 %agg.result, ptr noundef nonnull align 8 dereferenceable(24) %this) local_unnamed_addr #3 align 2 personality ptr @__gxx_personality_v0 {
entry:
  %stm = alloca %"class.std::__cxx11::basic_stringstream", align 8
  %md = alloca %class.ref.29, align 8
  call void @_ZNSt7__cxx1118basic_stringstreamIcSt11char_traitsIcESaIcEEC1Ev(ptr noundef nonnull align 8 dereferenceable(128) %stm)
  store ptr null, ptr %md, align 8
  invoke void @_ZNK6spacer18inductive_property8to_modelER3refI5modelE(ptr noundef nonnull align 8 dereferenceable(24) %this, ptr noundef nonnull align 8 dereferenceable(8) %md)
          to label %invoke.cont3 unwind label %lpad2

invoke.cont3:                                     ; preds = %entry
  %add.ptr = getelementptr inbounds i8, ptr %stm, i64 16
  %0 = load ptr, ptr %md, align 8
  %call6 = invoke noundef nonnull align 8 dereferenceable(8) ptr @_ZlsRSoRK10model_core(ptr noundef nonnull align 8 dereferenceable(8) %add.ptr, ptr noundef nonnull align 8 dereferenceable(96) %0)
          to label %invoke.cont5 unwind label %lpad2

invoke.cont5:                                     ; preds = %invoke.cont3
  invoke void @_ZNKSt7__cxx1118basic_stringstreamIcSt11char_traitsIcESaIcEE3strEv(ptr sret(%"class.std::__cxx11::basic_string") align 8 %agg.result, ptr noundef nonnull align 8 dereferenceable(128) %stm)
          to label %invoke.cont7 unwind label %lpad2

invoke.cont7:                                     ; preds = %invoke.cont5
  %1 = load ptr, ptr %md, align 8
  %tobool.not.i.i = icmp eq ptr %1, null
  br i1 %tobool.not.i.i, label %_ZN3refI5modelED2Ev.exit, label %if.then.i.i

if.then.i.i:                                      ; preds = %invoke.cont7
  %m_ref_count.i.i.i = getelementptr inbounds i8, ptr %1, i64 16
  %2 = load i32, ptr %m_ref_count.i.i.i, align 8
  %dec.i.i.i = add i32 %2, -1
  store i32 %dec.i.i.i, ptr %m_ref_count.i.i.i, align 8
  %cmp.i.i.i = icmp eq i32 %dec.i.i.i, 0
  br i1 %cmp.i.i.i, label %if.then.i.i.i, label %_ZN3refI5modelED2Ev.exit

if.then.i.i.i:                                    ; preds = %if.then.i.i
  %vtable.i.i.i.i = load ptr, ptr %1, align 8
  %3 = load ptr, ptr %vtable.i.i.i.i, align 8
  call void %3(ptr noundef nonnull align 8 dereferenceable(96) %1) #18
  invoke void @_ZN6memory10deallocateEPv(ptr noundef nonnull %1)
          to label %_ZN3refI5modelED2Ev.exit unwind label %terminate.lpad.i

terminate.lpad.i:                                 ; preds = %if.then.i.i.i
  %4 = landingpad { ptr, i32 }
          catch ptr null
  %5 = extractvalue { ptr, i32 } %4, 0
  call void @__clang_call_terminate(ptr %5) #19
  unreachable

_ZN3refI5modelED2Ev.exit:                         ; preds = %invoke.cont7, %if.then.i.i, %if.then.i.i.i
  call void @_ZNSt7__cxx1118basic_stringstreamIcSt11char_traitsIcESaIcEED1Ev(ptr noundef nonnull align 8 dereferenceable(128) %stm) #18
  ret void

lpad2:                                            ; preds = %invoke.cont5, %invoke.cont3, %entry
  %6 = landingpad { ptr, i32 }
          cleanup
  call void @_ZN3refI5modelED2Ev(ptr noundef nonnull align 8 dereferenceable(8) %md) #18
  call void @_ZNSt7__cxx1118basic_stringstreamIcSt11char_traitsIcESaIcEED1Ev(ptr noundef nonnull align 8 dereferenceable(128) %stm) #18
  resume { ptr, i32 } %6
}